target datalayout = "e-m:e-p270:32:32-p271:32:32-p272:64:64-i64:64-i128:128-f80:128-n8:16:32:64-S128"
target triple = "x86_64-pc-linux-gnu"

%struct.DdNode = type { i32, i32, ptr, %union.anon, i64 }
%union.anon = type { %struct.DdChildren }
%struct.DdChildren = type { ptr, ptr }
%struct.DdHashTable = type { i32, i32, ptr, ptr, ptr, i32, i32, i32, i32, ptr }
%struct.DdHashItem = type { ptr, i64, ptr, [1 x ptr] }

; Function Attrs: nounwind uwtable
define i32 @cuddHashTableInsert1(ptr noundef %0, ptr noundef %1, ptr noundef %2, i64 noundef %3) #0 {
  %5 = alloca i32, align 4
  %6 = alloca ptr, align 8
  %7 = alloca ptr, align 8
  %8 = alloca ptr, align 8
  %9 = alloca i64, align 8
  %10 = alloca i32, align 4
  %11 = alloca i32, align 4
  %12 = alloca ptr, align 8
  %13 = alloca i32, align 4
  store ptr %0, ptr %6, align 8, !tbaa !62
  store ptr %1, ptr %7, align 8, !tbaa !50
  store ptr %2, ptr %8, align 8, !tbaa !50
  store i64 %3, ptr %9, align 8, !tbaa !85
  call void @llvm.lifetime.start.p0(i64 4, ptr %10) #10
  call void @llvm.lifetime.start.p0(i64 4, ptr %11) #10
  call void @llvm.lifetime.start.p0(i64 8, ptr %12) #10
  %14 = load ptr, ptr %6, align 8, !tbaa !62
  %15 = getelementptr inbounds nuw %struct.DdHashTable, ptr %14, i32 0, i32 7
  %16 = load i32, ptr %15, align 8, !tbaa !75
  %17 = load ptr, ptr %6, align 8, !tbaa !62
  %18 = getelementptr inbounds nuw %struct.DdHashTable, ptr %17, i32 0, i32 8
  %19 = load i32, ptr %18, align 4, !tbaa !76
  %20 = icmp ugt i32 %16, %19
  br i1 %20, label %21, label %28

21:                                               ; preds = %4
  %22 = load ptr, ptr %6, align 8, !tbaa !62
  %23 = call i32 @cuddHashTableResize(ptr noundef %22)
  store i32 %23, ptr %10, align 4, !tbaa !8
  %24 = load i32, ptr %10, align 4, !tbaa !8
  %25 = icmp eq i32 %24, 0
  br i1 %25, label %26, label %27

26:                                               ; preds = %21
  store i32 0, ptr %5, align 4
  store i32 1, ptr %13, align 4
  br label %107

27:                                               ; preds = %21
  br label %28

28:                                               ; preds = %27, %4
  %29 = load ptr, ptr %6, align 8, !tbaa !62
  %30 = call ptr @cuddHashTableAlloc(ptr noundef %29)
  store ptr %30, ptr %12, align 8, !tbaa !77
  %31 = load ptr, ptr %12, align 8, !tbaa !77
  %32 = icmp eq ptr %31, null
  br i1 %32, label %33, label %34

33:                                               ; preds = %28
  store i32 0, ptr %5, align 4
  store i32 1, ptr %13, align 4
  br label %107

34:                                               ; preds = %28
  %35 = load ptr, ptr %6, align 8, !tbaa !62
  %36 = getelementptr inbounds nuw %struct.DdHashTable, ptr %35, i32 0, i32 7
  %37 = load i32, ptr %36, align 8, !tbaa !75
  %38 = add i32 %37, 1
  store i32 %38, ptr %36, align 8, !tbaa !75
  %39 = load ptr, ptr %8, align 8, !tbaa !50
  %40 = load ptr, ptr %12, align 8, !tbaa !77
  %41 = getelementptr inbounds nuw %struct.DdHashItem, ptr %40, i32 0, i32 2
  store ptr %39, ptr %41, align 8, !tbaa !78
  %42 = load ptr, ptr %8, align 8, !tbaa !50
  %43 = ptrtoint ptr %42 to i64
  %44 = and i64 %43, -2
  %45 = inttoptr i64 %44 to ptr
  %46 = getelementptr inbounds nuw %struct.DdNode, ptr %45, i32 0, i32 1
  %47 = load i32, ptr %46, align 4, !tbaa !55
  %48 = add i32 %47, 1
  store i32 %48, ptr %46, align 4, !tbaa !55
  %49 = load i64, ptr %9, align 8, !tbaa !85
  %50 = load ptr, ptr %12, align 8, !tbaa !77
  %51 = getelementptr inbounds nuw %struct.DdHashItem, ptr %50, i32 0, i32 1
  store i64 %49, ptr %51, align 8, !tbaa !86
  %52 = load ptr, ptr %7, align 8, !tbaa !50
  %53 = load ptr, ptr %12, align 8, !tbaa !77
  %54 = getelementptr inbounds nuw %struct.DdHashItem, ptr %53, i32 0, i32 3
  %55 = getelementptr inbounds [1 x ptr], ptr %54, i64 0, i64 0
  store ptr %52, ptr %55, align 8, !tbaa !50
  %56 = load ptr, ptr %7, align 8, !tbaa !50
  %57 = ptrtoint ptr %56 to i64
  %58 = and i64 %57, -2
  %59 = inttoptr i64 %58 to ptr
  %60 = getelementptr inbounds nuw %struct.DdNode, ptr %59, i32 0, i32 4
  %61 = load i64, ptr %60, align 8, !tbaa !88
  %62 = shl i64 %61, 1
  %63 = load ptr, ptr %7, align 8, !tbaa !50
  %64 = ptrtoint ptr %63 to i64
  %65 = and i64 %64, 1
  %66 = trunc i64 %65 to i32
  %67 = sext i32 %66 to i64
  %68 = or i64 %62, %67
  %69 = trunc i64 %68 to i32
  %70 = mul i32 %69, 12582917
  %71 = load ptr, ptr %7, align 8, !tbaa !50
  %72 = ptrtoint ptr %71 to i64
  %73 = and i64 %72, -2
  %74 = inttoptr i64 %73 to ptr
  %75 = getelementptr inbounds nuw %struct.DdNode, ptr %74, i32 0, i32 4
  %76 = load i64, ptr %75, align 8, !tbaa !88
  %77 = shl i64 %76, 1
  %78 = load ptr, ptr %7, align 8, !tbaa !50
  %79 = ptrtoint ptr %78 to i64
  %80 = and i64 %79, 1
  %81 = trunc i64 %80 to i32
  %82 = sext i32 %81 to i64
  %83 = or i64 %77, %82
  %84 = trunc i64 %83 to i32
  %85 = add i32 %70, %84
  %86 = mul i32 %85, 4256249
  %87 = load ptr, ptr %6, align 8, !tbaa !62
  %88 = getelementptr inbounds nuw %struct.DdHashTable, ptr %87, i32 0, i32 6
  %89 = load i32, ptr %88, align 4, !tbaa !73
  %90 = lshr i32 %86, %89
  store i32 %90, ptr %11, align 4, !tbaa !8
  %91 = load ptr, ptr %6, align 8, !tbaa !62
  %92 = getelementptr inbounds nuw %struct.DdHashTable, ptr %91, i32 0, i32 2
  %93 = load ptr, ptr %92, align 8, !tbaa !74
  %94 = load i32, ptr %11, align 4, !tbaa !8
  %95 = zext i32 %94 to i64
  %96 = getelementptr inbounds nuw ptr, ptr %93, i64 %95
  %97 = load ptr, ptr %96, align 8, !tbaa !77
  %98 = load ptr, ptr %12, align 8, !tbaa !77
  %99 = getelementptr inbounds nuw %struct.DdHashItem, ptr %98, i32 0, i32 0
  store ptr %97, ptr %99, align 8, !tbaa !80
  %100 = load ptr, ptr %12, align 8, !tbaa !77
  %101 = load ptr, ptr %6, align 8, !tbaa !62
  %102 = getelementptr inbounds nuw %struct.DdHashTable, ptr %101, i32 0, i32 2
  %103 = load ptr, ptr %102, align 8, !tbaa !74
  %104 = load i32, ptr %11, align 4, !tbaa !8
  %105 = zext i32 %104 to i64
  %106 = getelementptr inbounds nuw ptr, ptr %103, i64 %105
  store ptr %100, ptr %106, align 8, !tbaa !77
  store i32 1, ptr %5, align 4
  store i32 1, ptr %13, align 4
  br label %107

107:                                              ; preds = %34, %33, %26
  call void @llvm.lifetime.end.p0(i64 8, ptr %12) #10
  call void @llvm.lifetime.end.p0(i64 4, ptr %11) #10
  call void @llvm.lifetime.end.p0(i64 4, ptr %10) #10
  %108 = load i32, ptr %5, align 4
  ret i32 %108
}