; Function Attrs: nounwind uwtable
define range(i32 0, 2) i32 @cuddHashTableInsert1(ptr noundef captures(none) %0, ptr noundef %1, ptr noundef %2, i64 noundef %3) local_unnamed_addr #0 {
  %5 = getelementptr inbounds nuw i8, ptr %0, i64 40
  %6 = load i32, ptr %5, align 8, !tbaa !65
  %7 = getelementptr inbounds nuw i8, ptr %0, i64 44
  %8 = load i32, ptr %7, align 4, !tbaa !66
  %9 = icmp ugt i32 %6, %8
  br i1 %9, label %10, label %11

10:                                               ; preds = %4
  tail call fastcc void @cuddHashTableResize(ptr noundef nonnull %0)
  br label %11

11:                                               ; preds = %10, %4
  %12 = tail call fastcc ptr @cuddHashTableAlloc(ptr noundef nonnull %0)
  %13 = icmp eq ptr %12, null
  br i1 %13, label %44, label %14

14:                                               ; preds = %11
  %15 = load i32, ptr %5, align 8, !tbaa !65
  %16 = add i32 %15, 1
  store i32 %16, ptr %5, align 8, !tbaa !65
  %17 = getelementptr inbounds nuw i8, ptr %12, i64 16
  store ptr %2, ptr %17, align 8, !tbaa !68
  %18 = ptrtoint ptr %2 to i64
  %19 = and i64 %18, -2
  %20 = inttoptr i64 %19 to ptr
  %21 = getelementptr inbounds nuw i8, ptr %20, i64 4
  %22 = load i32, ptr %21, align 4, !tbaa !49
  %23 = add i32 %22, 1
  store i32 %23, ptr %21, align 4, !tbaa !49
  %24 = getelementptr inbounds nuw i8, ptr %12, i64 8
  store i64 %3, ptr %24, align 8, !tbaa !74
  %25 = getelementptr inbounds nuw i8, ptr %12, i64 24
  store ptr %1, ptr %25, align 8, !tbaa !45
  %26 = ptrtoint ptr %1 to i64
  %27 = and i64 %26, -2
  %28 = inttoptr i64 %27 to ptr
  %29 = getelementptr inbounds nuw i8, ptr %28, i64 32
  %30 = load i64, ptr %29, align 8, !tbaa !79
  %31 = shl i64 %30, 1
  %32 = and i64 %26, 1
  %33 = or disjoint i64 %31, %32
  %34 = trunc i64 %33 to i32
  %35 = mul i32 %34, 2084940758
  %36 = getelementptr inbounds nuw i8, ptr %0, i64 36
  %37 = load i32, ptr %36, align 4, !tbaa !63
  %38 = lshr i32 %35, %37
  %39 = getelementptr inbounds nuw i8, ptr %0, i64 8
  %40 = load ptr, ptr %39, align 8, !tbaa !64
  %41 = zext i32 %38 to i64
  %42 = getelementptr inbounds nuw ptr, ptr %40, i64 %41
  %43 = load ptr, ptr %42, align 8, !tbaa !67
  store ptr %43, ptr %12, align 8, !tbaa !76
  store ptr %12, ptr %42, align 8, !tbaa !67
  br label %44

44:                                               ; preds = %11, %14
  %.0 = phi i32 [ 1, %14 ], [ 0, %11 ]
  ret i32 %.0
}